; Function Attrs: mustprogress nofree norecurse nosync nounwind willreturn memory(read, inaccessiblemem: none) uwtable
define dso_local noundef nonnull align 8 dereferenceable(32) ptr @_ZNK16cmStateDirectory16GetCurrentSourceB5cxx11Ev(ptr noundef nonnull readonly align 8 captures(none) dereferenceable(40) %0) local_unnamed_addr #5 align 2 {
  %2 = load ptr, ptr %0, align 8, !tbaa !4
  %3 = getelementptr inbounds nuw i8, ptr %0, i64 8
  %4 = load i64, ptr %3, align 8, !tbaa !11
  %5 = load ptr, ptr %2, align 8, !tbaa !12
  %6 = getelementptr %"struct.cmStateDetail::BuildsystemDirectoryStateType", ptr %5, i64 %4
  %7 = getelementptr i8, ptr %6, i64 -344
  ret ptr %7
}